; Function Attrs: mustprogress uwtable
define noundef nonnull ptr @_ZNK12RichFileSave5cloneEv(ptr noundef nonnull align 8 dereferenceable(64) %0) unnamed_addr #1 align 2 personality ptr @__gxx_personality_v0 {
  %2 = tail call noalias noundef nonnull dereferenceable(64) ptr @_Znwm(i64 noundef 64) #11
  invoke void @_ZN13RichParameterC2ERKS_(ptr noundef nonnull align 8 dereferenceable(56) %2, ptr noundef nonnull align 8 dereferenceable(56) %0)
          to label %.noexc unwind label %10

.noexc:                                           ; preds = %1
  store ptr getelementptr inbounds ({ [8 x ptr] }, ptr @_ZTV12RichFileSave, i64 0, i32 0, i64 2), ptr %2, align 8
  %3 = getelementptr inbounds i8, ptr %2, i64 56
  %4 = getelementptr inbounds i8, ptr %0, i64 56
  %5 = load ptr, ptr %4, align 8
  store ptr %5, ptr %3, align 8
  %6 = load atomic i32, ptr %5 monotonic, align 4
  %7 = add i32 %6, -1
  %or.cond.not.i.i.i = icmp ult i32 %7, -2
  br i1 %or.cond.not.i.i.i, label %8, label %_ZN12RichFileSaveC2ERKS_.exit

8:                                                ; preds = %.noexc
  %9 = atomicrmw add ptr %5, i32 1 seq_cst, align 4
  br label %_ZN12RichFileSaveC2ERKS_.exit

_ZN12RichFileSaveC2ERKS_.exit:                    ; preds = %8, %.noexc
  ret ptr %2

10:                                               ; preds = %1
  %11 = landingpad { ptr, i32 }
          cleanup
  tail call void @_ZdlPv(ptr noundef nonnull %2) #10
  resume { ptr, i32 } %11
}